target datalayout = "e-m:e-p270:32:32-p271:32:32-p272:64:64-i64:64-i128:128-f80:128-n8:16:32:64-S128"
target triple = "x86_64-pc-linux-gnu"

%struct.CVodeMemRec = type { ptr, double, ptr, ptr, i32, i32, double, double, ptr, i32, i32, ptr, ptr, i32, [13 x ptr], ptr, ptr, ptr, ptr, ptr, ptr, ptr, ptr, ptr, i32, i32, double, i32, i32, i32, i32, i32, double, double, double, double, double, double, double, double, [14 x double], [6 x double], [13 x double], double, double, double, double, double, double, double, i32, double, i32, i64, i32, i32, i32, double, double, double, double, double, double, double, double, double, double, double, double, i64, i32, i64, i64, i64, i64, i64, i64, i64, i32, double, double, double, i64, i64, i64, i64, ptr, i32, ptr, i32, ptr, ptr, ptr, ptr, ptr, i64, double, i32, i64, double, double, double, i32, double, i32, i32, i32, i32, i32, ptr, i64, i32, [6 x [4 x double]], i32, i64, ptr, i32, ptr, ptr, double, double, double, ptr, ptr, ptr, double, double, i32, i32, i64, ptr, i32, ptr, i32, i32, [13 x double], [13 x double], [13 x ptr], i32 }
%struct.CVLsMemRec = type { i32, i32, i32, ptr, ptr, i32, double, i32, double, double, ptr, ptr, ptr, ptr, ptr, ptr, ptr, i64, i64, i64, i64, i64, i64, i64, i64, i64, i64, double, ptr, ptr, ptr, ptr, i32, ptr, ptr, ptr, ptr, i32, ptr, ptr, i32 }

; Function Attrs: nounwind uwtable
define i32 @cvLsDenseDQJac(double noundef %0, ptr noundef %1, ptr noundef %2, ptr noundef %3, ptr noundef %4, ptr noundef %5) #0 {
  %7 = alloca double, align 8
  %8 = alloca ptr, align 8
  %9 = alloca ptr, align 8
  %10 = alloca ptr, align 8
  %11 = alloca ptr, align 8
  %12 = alloca ptr, align 8
  %13 = alloca double, align 8
  %14 = alloca double, align 8
  %15 = alloca double, align 8
  %16 = alloca double, align 8
  %17 = alloca double, align 8
  %18 = alloca double, align 8
  %19 = alloca double, align 8
  %20 = alloca ptr, align 8
  %21 = alloca ptr, align 8
  %22 = alloca ptr, align 8
  %23 = alloca ptr, align 8
  %24 = alloca ptr, align 8
  %25 = alloca i64, align 8
  %26 = alloca i64, align 8
  %27 = alloca ptr, align 8
  %28 = alloca i32, align 4
  store double %0, ptr %7, align 8, !tbaa !91
  store ptr %1, ptr %8, align 8, !tbaa !85
  store ptr %2, ptr %9, align 8, !tbaa !85
  store ptr %3, ptr %10, align 8, !tbaa !9
  store ptr %4, ptr %11, align 8, !tbaa !11
  store ptr %5, ptr %12, align 8, !tbaa !85
  call void @llvm.lifetime.start.p0(i64 8, ptr %13) #7
  call void @llvm.lifetime.start.p0(i64 8, ptr %14) #7
  call void @llvm.lifetime.start.p0(i64 8, ptr %15) #7
  call void @llvm.lifetime.start.p0(i64 8, ptr %16) #7
  call void @llvm.lifetime.start.p0(i64 8, ptr %17) #7
  call void @llvm.lifetime.start.p0(i64 8, ptr %18) #7
  call void @llvm.lifetime.start.p0(i64 8, ptr %19) #7
  call void @llvm.lifetime.start.p0(i64 8, ptr %20) #7
  call void @llvm.lifetime.start.p0(i64 8, ptr %21) #7
  call void @llvm.lifetime.start.p0(i64 8, ptr %22) #7
  call void @llvm.lifetime.start.p0(i64 8, ptr %23) #7
  call void @llvm.lifetime.start.p0(i64 8, ptr %24) #7
  call void @llvm.lifetime.start.p0(i64 8, ptr %25) #7
  call void @llvm.lifetime.start.p0(i64 8, ptr %26) #7
  call void @llvm.lifetime.start.p0(i64 8, ptr %27) #7
  call void @llvm.lifetime.start.p0(i64 4, ptr %28) #7
  store i32 0, ptr %28, align 4, !tbaa !20
  store ptr null, ptr %22, align 8, !tbaa !125
  %29 = load ptr, ptr %11, align 8, !tbaa !11
  %30 = getelementptr inbounds nuw %struct.CVodeMemRec, ptr %29, i32 0, i32 94
  %31 = load ptr, ptr %30, align 8, !tbaa !79
  store ptr %31, ptr %27, align 8, !tbaa !43
  %32 = load ptr, ptr %10, align 8, !tbaa !9
  %33 = call i64 @SUNDenseMatrix_Columns(ptr noundef %32)
  store i64 %33, ptr %26, align 8, !tbaa !101
  %34 = load ptr, ptr %12, align 8, !tbaa !85
  store ptr %34, ptr %23, align 8, !tbaa !85
  %35 = load ptr, ptr %12, align 8, !tbaa !85
  %36 = call ptr @N_VCloneEmpty(ptr noundef %35)
  store ptr %36, ptr %24, align 8, !tbaa !85
  %37 = load ptr, ptr %11, align 8, !tbaa !11
  %38 = getelementptr inbounds nuw %struct.CVodeMemRec, ptr %37, i32 0, i32 15
  %39 = load ptr, ptr %38, align 8, !tbaa !114
  %40 = call ptr @N_VGetArrayPointer(ptr noundef %39)
  store ptr %40, ptr %21, align 8, !tbaa !125
  %41 = load ptr, ptr %8, align 8, !tbaa !85
  %42 = call ptr @N_VGetArrayPointer(ptr noundef %41)
  store ptr %42, ptr %20, align 8, !tbaa !125
  %43 = load ptr, ptr %11, align 8, !tbaa !11
  %44 = getelementptr inbounds nuw %struct.CVodeMemRec, ptr %43, i32 0, i32 13
  %45 = load i32, ptr %44, align 8, !tbaa !131
  %46 = icmp ne i32 %45, 0
  br i1 %46, label %47, label %52

47:                                               ; preds = %6
  %48 = load ptr, ptr %11, align 8, !tbaa !11
  %49 = getelementptr inbounds nuw %struct.CVodeMemRec, ptr %48, i32 0, i32 23
  %50 = load ptr, ptr %49, align 8, !tbaa !132
  %51 = call ptr @N_VGetArrayPointer(ptr noundef %50)
  store ptr %51, ptr %22, align 8, !tbaa !125
  br label %52

52:                                               ; preds = %47, %6
  %53 = load ptr, ptr %11, align 8, !tbaa !11
  %54 = getelementptr inbounds nuw %struct.CVodeMemRec, ptr %53, i32 0, i32 1
  %55 = load double, ptr %54, align 8, !tbaa !133
  %56 = fcmp ole double %55, 0.000000e+00
  br i1 %56, label %57, label %58

57:                                               ; preds = %52
  br label %63

58:                                               ; preds = %52
  %59 = load ptr, ptr %11, align 8, !tbaa !11
  %60 = getelementptr inbounds nuw %struct.CVodeMemRec, ptr %59, i32 0, i32 1
  %61 = load double, ptr %60, align 8, !tbaa !133
  %62 = call double @sqrt(double noundef %61) #7, !tbaa !20
  br label %63

63:                                               ; preds = %58, %57
  %64 = phi double [ 0.000000e+00, %57 ], [ %62, %58 ]
  store double %64, ptr %18, align 8, !tbaa !91
  %65 = load ptr, ptr %9, align 8, !tbaa !85
  %66 = load ptr, ptr %11, align 8, !tbaa !11
  %67 = getelementptr inbounds nuw %struct.CVodeMemRec, ptr %66, i32 0, i32 15
  %68 = load ptr, ptr %67, align 8, !tbaa !114
  %69 = call double @N_VWrmsNorm(ptr noundef %65, ptr noundef %68)
  store double %69, ptr %13, align 8, !tbaa !91
  %70 = load double, ptr %13, align 8, !tbaa !91
  %71 = fcmp une double %70, 0.000000e+00
  br i1 %71, label %72, label %87

72:                                               ; preds = %63
  %73 = load ptr, ptr %11, align 8, !tbaa !11
  %74 = getelementptr inbounds nuw %struct.CVodeMemRec, ptr %73, i32 0, i32 33
  %75 = load double, ptr %74, align 8, !tbaa !134
  %76 = call double @llvm.fabs.f64(double %75)
  %77 = fmul double 1.000000e+03, %76
  %78 = load ptr, ptr %11, align 8, !tbaa !11
  %79 = getelementptr inbounds nuw %struct.CVodeMemRec, ptr %78, i32 0, i32 1
  %80 = load double, ptr %79, align 8, !tbaa !133
  %81 = fmul double %77, %80
  %82 = load i64, ptr %26, align 8, !tbaa !101
  %83 = sitofp i64 %82 to double
  %84 = fmul double %81, %83
  %85 = load double, ptr %13, align 8, !tbaa !91
  %86 = fmul double %84, %85
  br label %88

87:                                               ; preds = %63
  br label %88

88:                                               ; preds = %87, %72
  %89 = phi double [ %86, %72 ], [ 1.000000e+00, %87 ]
  store double %89, ptr %14, align 8, !tbaa !91
  store i64 0, ptr %25, align 8, !tbaa !101
  br label %90

90:                                               ; preds = %205, %88
  %91 = load i64, ptr %25, align 8, !tbaa !101
  %92 = load i64, ptr %26, align 8, !tbaa !101
  %93 = icmp slt i64 %91, %92
  br i1 %93, label %94, label %208

94:                                               ; preds = %90
  %95 = load ptr, ptr %10, align 8, !tbaa !9
  %96 = load i64, ptr %25, align 8, !tbaa !101
  %97 = call ptr @SUNDenseMatrix_Column(ptr noundef %95, i64 noundef %96)
  %98 = load ptr, ptr %24, align 8, !tbaa !85
  call void @N_VSetArrayPointer(ptr noundef %97, ptr noundef %98)
  %99 = load ptr, ptr %20, align 8, !tbaa !125
  %100 = load i64, ptr %25, align 8, !tbaa !101
  %101 = getelementptr inbounds double, ptr %99, i64 %100
  %102 = load double, ptr %101, align 8, !tbaa !91
  store double %102, ptr %17, align 8, !tbaa !91
  %103 = load double, ptr %18, align 8, !tbaa !91
  %104 = load double, ptr %17, align 8, !tbaa !91
  %105 = call double @llvm.fabs.f64(double %104)
  %106 = fmul double %103, %105
  %107 = load double, ptr %14, align 8, !tbaa !91
  %108 = load ptr, ptr %21, align 8, !tbaa !125
  %109 = load i64, ptr %25, align 8, !tbaa !101
  %110 = getelementptr inbounds double, ptr %108, i64 %109
  %111 = load double, ptr %110, align 8, !tbaa !91
  %112 = fdiv double %107, %111
  %113 = fcmp ogt double %106, %112
  br i1 %113, label %114, label %119

114:                                              ; preds = %94
  %115 = load double, ptr %18, align 8, !tbaa !91
  %116 = load double, ptr %17, align 8, !tbaa !91
  %117 = call double @llvm.fabs.f64(double %116)
  %118 = fmul double %115, %117
  br label %126

119:                                              ; preds = %94
  %120 = load double, ptr %14, align 8, !tbaa !91
  %121 = load ptr, ptr %21, align 8, !tbaa !125
  %122 = load i64, ptr %25, align 8, !tbaa !101
  %123 = getelementptr inbounds double, ptr %121, i64 %122
  %124 = load double, ptr %123, align 8, !tbaa !91
  %125 = fdiv double %120, %124
  br label %126

126:                                              ; preds = %119, %114
  %127 = phi double [ %118, %114 ], [ %125, %119 ]
  store double %127, ptr %15, align 8, !tbaa !91
  %128 = load ptr, ptr %11, align 8, !tbaa !11
  %129 = getelementptr inbounds nuw %struct.CVodeMemRec, ptr %128, i32 0, i32 13
  %130 = load i32, ptr %129, align 8, !tbaa !131
  %131 = icmp ne i32 %130, 0
  br i1 %131, label %132, label %168

132:                                              ; preds = %126
  %133 = load ptr, ptr %22, align 8, !tbaa !125
  %134 = load i64, ptr %25, align 8, !tbaa !101
  %135 = getelementptr inbounds double, ptr %133, i64 %134
  %136 = load double, ptr %135, align 8, !tbaa !91
  store double %136, ptr %19, align 8, !tbaa !91
  %137 = load double, ptr %19, align 8, !tbaa !91
  %138 = call double @llvm.fabs.f64(double %137)
  %139 = fcmp oeq double %138, 1.000000e+00
  br i1 %139, label %140, label %151

140:                                              ; preds = %132
  %141 = load double, ptr %17, align 8, !tbaa !91
  %142 = load double, ptr %15, align 8, !tbaa !91
  %143 = fadd double %141, %142
  %144 = load double, ptr %19, align 8, !tbaa !91
  %145 = fmul double %143, %144
  %146 = fcmp olt double %145, 0.000000e+00
  br i1 %146, label %147, label %150

147:                                              ; preds = %140
  %148 = load double, ptr %15, align 8, !tbaa !91
  %149 = fneg double %148
  store double %149, ptr %15, align 8, !tbaa !91
  br label %150

150:                                              ; preds = %147, %140
  br label %167

151:                                              ; preds = %132
  %152 = load double, ptr %19, align 8, !tbaa !91
  %153 = call double @llvm.fabs.f64(double %152)
  %154 = fcmp oeq double %153, 2.000000e+00
  br i1 %154, label %155, label %166

155:                                              ; preds = %151
  %156 = load double, ptr %17, align 8, !tbaa !91
  %157 = load double, ptr %15, align 8, !tbaa !91
  %158 = fadd double %156, %157
  %159 = load double, ptr %19, align 8, !tbaa !91
  %160 = fmul double %158, %159
  %161 = fcmp ole double %160, 0.000000e+00
  br i1 %161, label %162, label %165

162:                                              ; preds = %155
  %163 = load double, ptr %15, align 8, !tbaa !91
  %164 = fneg double %163
  store double %164, ptr %15, align 8, !tbaa !91
  br label %165

165:                                              ; preds = %162, %155
  br label %166

166:                                              ; preds = %165, %151
  br label %167

167:                                              ; preds = %166, %150
  br label %168

168:                                              ; preds = %167, %126
  %169 = load double, ptr %15, align 8, !tbaa !91
  %170 = load ptr, ptr %20, align 8, !tbaa !125
  %171 = load i64, ptr %25, align 8, !tbaa !101
  %172 = getelementptr inbounds double, ptr %170, i64 %171
  %173 = load double, ptr %172, align 8, !tbaa !91
  %174 = fadd double %173, %169
  store double %174, ptr %172, align 8, !tbaa !91
  %175 = load ptr, ptr %11, align 8, !tbaa !11
  %176 = getelementptr inbounds nuw %struct.CVodeMemRec, ptr %175, i32 0, i32 2
  %177 = load ptr, ptr %176, align 8, !tbaa !55
  %178 = load double, ptr %7, align 8, !tbaa !91
  %179 = load ptr, ptr %8, align 8, !tbaa !85
  %180 = load ptr, ptr %23, align 8, !tbaa !85
  %181 = load ptr, ptr %11, align 8, !tbaa !11
  %182 = getelementptr inbounds nuw %struct.CVodeMemRec, ptr %181, i32 0, i32 3
  %183 = load ptr, ptr %182, align 8, !tbaa !64
  %184 = call i32 %177(double noundef %178, ptr noundef %179, ptr noundef %180, ptr noundef %183)
  store i32 %184, ptr %28, align 4, !tbaa !20
  %185 = load ptr, ptr %27, align 8, !tbaa !43
  %186 = getelementptr inbounds nuw %struct.CVLsMemRec, ptr %185, i32 0, i32 19
  %187 = load i64, ptr %186, align 8, !tbaa !115
  %188 = add nsw i64 %187, 1
  store i64 %188, ptr %186, align 8, !tbaa !115
  %189 = load i32, ptr %28, align 4, !tbaa !20
  %190 = icmp ne i32 %189, 0
  br i1 %190, label %191, label %192

191:                                              ; preds = %168
  br label %208

192:                                              ; preds = %168
  %193 = load double, ptr %17, align 8, !tbaa !91
  %194 = load ptr, ptr %20, align 8, !tbaa !125
  %195 = load i64, ptr %25, align 8, !tbaa !101
  %196 = getelementptr inbounds double, ptr %194, i64 %195
  store double %193, ptr %196, align 8, !tbaa !91
  %197 = load double, ptr %15, align 8, !tbaa !91
  %198 = fdiv double 1.000000e+00, %197
  store double %198, ptr %16, align 8, !tbaa !91
  %199 = load double, ptr %16, align 8, !tbaa !91
  %200 = load ptr, ptr %23, align 8, !tbaa !85
  %201 = load double, ptr %16, align 8, !tbaa !91
  %202 = fneg double %201
  %203 = load ptr, ptr %9, align 8, !tbaa !85
  %204 = load ptr, ptr %24, align 8, !tbaa !85
  call void @N_VLinearSum(double noundef %199, ptr noundef %200, double noundef %202, ptr noundef %203, ptr noundef %204)
  br label %205

205:                                              ; preds = %192
  %206 = load i64, ptr %25, align 8, !tbaa !101
  %207 = add nsw i64 %206, 1
  store i64 %207, ptr %25, align 8, !tbaa !101
  br label %90

208:                                              ; preds = %191, %90
  %209 = load ptr, ptr %24, align 8, !tbaa !85
  call void @N_VSetArrayPointer(ptr noundef null, ptr noundef %209)
  %210 = load ptr, ptr %24, align 8, !tbaa !85
  call void @N_VDestroy(ptr noundef %210)
  %211 = load i32, ptr %28, align 4, !tbaa !20
  call void @llvm.lifetime.end.p0(i64 4, ptr %28) #7
  call void @llvm.lifetime.end.p0(i64 8, ptr %27) #7
  call void @llvm.lifetime.end.p0(i64 8, ptr %26) #7
  call void @llvm.lifetime.end.p0(i64 8, ptr %25) #7
  call void @llvm.lifetime.end.p0(i64 8, ptr %24) #7
  call void @llvm.lifetime.end.p0(i64 8, ptr %23) #7
  call void @llvm.lifetime.end.p0(i64 8, ptr %22) #7
  call void @llvm.lifetime.end.p0(i64 8, ptr %21) #7
  call void @llvm.lifetime.end.p0(i64 8, ptr %20) #7
  call void @llvm.lifetime.end.p0(i64 8, ptr %19) #7
  call void @llvm.lifetime.end.p0(i64 8, ptr %18) #7
  call void @llvm.lifetime.end.p0(i64 8, ptr %17) #7
  call void @llvm.lifetime.end.p0(i64 8, ptr %16) #7
  call void @llvm.lifetime.end.p0(i64 8, ptr %15) #7
  call void @llvm.lifetime.end.p0(i64 8, ptr %14) #7
  call void @llvm.lifetime.end.p0(i64 8, ptr %13) #7
  ret i32 %211
}