; Function Attrs: nounwind uwtable
define i32 @cvLsDenseDQJac(double noundef %0, ptr noundef %1, ptr noundef %2, ptr noundef %3, ptr noundef readonly captures(none) %4, ptr noundef %5) local_unnamed_addr #0 {
  %7 = getelementptr inbounds nuw i8, ptr %4, i64 1040
  %8 = load ptr, ptr %7, align 8, !tbaa !69
  %9 = tail call i64 @SUNDenseMatrix_Columns(ptr noundef %3) #13
  %10 = tail call ptr @N_VCloneEmpty(ptr noundef %5) #13
  %11 = getelementptr inbounds nuw i8, ptr %4, i64 200
  %12 = load ptr, ptr %11, align 8, !tbaa !102
  %13 = tail call ptr @N_VGetArrayPointer(ptr noundef %12) #13
  %14 = tail call ptr @N_VGetArrayPointer(ptr noundef %1) #13
  %15 = getelementptr inbounds nuw i8, ptr %4, i64 88
  %16 = load i32, ptr %15, align 8, !tbaa !116
  %.not = icmp eq i32 %16, 0
  br i1 %.not, label %21, label %17

17:                                               ; preds = %6
  %18 = getelementptr inbounds nuw i8, ptr %4, i64 264
  %19 = load ptr, ptr %18, align 8, !tbaa !117
  %20 = tail call ptr @N_VGetArrayPointer(ptr noundef %19) #13
  br label %21

21:                                               ; preds = %17, %6
  %.070 = phi ptr [ %20, %17 ], [ null, %6 ]
  %22 = getelementptr inbounds nuw i8, ptr %4, i64 8
  %23 = load double, ptr %22, align 8, !tbaa !118
  %24 = fcmp ugt double %23, 0.000000e+00
  br i1 %24, label %25, label %27

25:                                               ; preds = %21
  %26 = tail call double @sqrt(double noundef %23) #13, !tbaa !65
  br label %27

27:                                               ; preds = %21, %25
  %28 = phi double [ %26, %25 ], [ 0.000000e+00, %21 ]
  %29 = load ptr, ptr %11, align 8, !tbaa !102
  %30 = tail call double @N_VWrmsNorm(ptr noundef %2, ptr noundef %29) #13
  %31 = fcmp une double %30, 0.000000e+00
  br i1 %31, label %32, label %42

32:                                               ; preds = %27
  %33 = getelementptr inbounds nuw i8, ptr %4, i64 320
  %34 = load double, ptr %33, align 8, !tbaa !119
  %35 = tail call double @llvm.fabs.f64(double %34)
  %36 = fmul double %35, 1.000000e+03
  %37 = load double, ptr %22, align 8, !tbaa !118
  %38 = fmul double %37, %36
  %39 = sitofp i64 %9 to double
  %40 = fmul double %38, %39
  %41 = fmul double %30, %40
  br label %42

42:                                               ; preds = %27, %32
  %43 = phi double [ %41, %32 ], [ 1.000000e+00, %27 ]
  %44 = icmp sgt i64 %9, 0
  br i1 %44, label %.lr.ph, label %._crit_edge

.lr.ph:                                           ; preds = %42
  %45 = getelementptr inbounds nuw i8, ptr %4, i64 16
  %46 = getelementptr inbounds nuw i8, ptr %4, i64 24
  %47 = getelementptr inbounds nuw i8, ptr %8, i64 144
  br label %48

48:                                               ; preds = %.lr.ph, %85
  %.07181 = phi i64 [ 0, %.lr.ph ], [ %88, %85 ]
  %49 = tail call ptr @SUNDenseMatrix_Column(ptr noundef %3, i64 noundef %.07181) #13
  tail call void @N_VSetArrayPointer(ptr noundef %49, ptr noundef %10) #13
  %50 = getelementptr inbounds nuw double, ptr %14, i64 %.07181
  %51 = load double, ptr %50, align 8, !tbaa !87
  %52 = tail call double @llvm.fabs.f64(double %51)
  %53 = fmul double %28, %52
  %54 = getelementptr inbounds nuw double, ptr %13, i64 %.07181
  %55 = load double, ptr %54, align 8, !tbaa !87
  %56 = fdiv double %43, %55
  %57 = fcmp ogt double %53, %56
  %. = select i1 %57, double %53, double %56
  %58 = load i32, ptr %15, align 8, !tbaa !116
  %.not79 = icmp eq i32 %58, 0
  br i1 %.not79, label %78, label %59

59:                                               ; preds = %48
  %60 = getelementptr inbounds nuw double, ptr %.070, i64 %.07181
  %61 = load double, ptr %60, align 8, !tbaa !87
  %62 = tail call double @llvm.fabs.f64(double %61)
  %63 = fcmp oeq double %62, 1.000000e+00
  br i1 %63, label %64, label %70

64:                                               ; preds = %59
  %65 = fadd double %51, %.
  %66 = fmul double %65, %61
  %67 = fcmp olt double %66, 0.000000e+00
  br i1 %67, label %68, label %78

68:                                               ; preds = %64
  %69 = fneg double %.
  br label %78

70:                                               ; preds = %59
  %71 = fcmp oeq double %62, 2.000000e+00
  br i1 %71, label %72, label %78

72:                                               ; preds = %70
  %73 = fadd double %51, %.
  %74 = fmul double %73, %61
  %75 = fcmp ugt double %74, 0.000000e+00
  br i1 %75, label %78, label %76

76:                                               ; preds = %72
  %77 = fneg double %.
  br label %78

78:                                               ; preds = %68, %64, %72, %76, %70, %48
  %.069 = phi double [ %69, %68 ], [ %., %64 ], [ %77, %76 ], [ %., %72 ], [ %., %70 ], [ %., %48 ]
  %79 = fadd double %51, %.069
  store double %79, ptr %50, align 8, !tbaa !87
  %80 = load ptr, ptr %45, align 8, !tbaa !47
  %81 = load ptr, ptr %46, align 8, !tbaa !53
  %82 = tail call i32 %80(double noundef %0, ptr noundef %1, ptr noundef %5, ptr noundef %81) #13
  %83 = load i64, ptr %47, align 8, !tbaa !103
  %84 = add nsw i64 %83, 1
  store i64 %84, ptr %47, align 8, !tbaa !103
  %.not80 = icmp eq i32 %82, 0
  br i1 %.not80, label %85, label %._crit_edge

85:                                               ; preds = %78
  store double %51, ptr %50, align 8, !tbaa !87
  %86 = fdiv double 1.000000e+00, %.069
  %87 = fneg double %86
  tail call void @N_VLinearSum(double noundef %86, ptr noundef %5, double noundef %87, ptr noundef %2, ptr noundef %10) #13
  %88 = add nuw nsw i64 %.07181, 1
  %exitcond.not = icmp eq i64 %88, %9
  br i1 %exitcond.not, label %._crit_edge, label %48

._crit_edge:                                      ; preds = %85, %78, %42
  %.1 = phi i32 [ 0, %42 ], [ %82, %78 ], [ 0, %85 ]
  tail call void @N_VSetArrayPointer(ptr noundef null, ptr noundef %10) #13
  tail call void @N_VDestroy(ptr noundef %10) #13
  ret i32 %.1
}